	.cpu cortex-m4
	.eabi_attribute 27, 1
	.eabi_attribute 28, 1
	.eabi_attribute 20, 1
	.eabi_attribute 21, 1
	.eabi_attribute 23, 3
	.eabi_attribute 24, 1
	.eabi_attribute 25, 1
	.eabi_attribute 26, 1
	.eabi_attribute 30, 6
	.eabi_attribute 34, 1
	.eabi_attribute 18, 4
	.file	"app_uart_fifo.c"
	.text
.Ltext0:
	.section	.data.app_uart_inst,"aw",%progbits
	.align	2
	.type	app_uart_inst, %object
	.size	app_uart_inst, 8
app_uart_inst:
	.word	1073750016
	.byte	0
	.space	3
	.section	.text.fifo_length,"ax",%progbits
	.align	1
	.syntax unified
	.thumb
	.thumb_func
	.fpu fpv4-sp-d16
	.type	fifo_length, %function
fifo_length:
.LFB199:
	.file 1 "C:\\Users\\Admin\\Desktop\\WSC_FTSP\\code\\WCS\\nRF5_SDK_14.2.0\\components\\libraries\\uart\\app_uart_fifo.c"
	.loc 1 50 0
	@ args = 0, pretend = 0, frame = 16
	@ frame_needed = 0, uses_anonymous_args = 0
	@ link register save eliminated.
	sub	sp, sp, #16
.LCFI0:
	str	r0, [sp, #4]
	.loc 1 51 0
	ldr	r3, [sp, #4]
	ldr	r3, [r3, #8]
	str	r3, [sp, #12]
	.loc 1 52 0
	ldr	r3, [sp, #4]
	ldr	r2, [r3, #12]
	ldr	r3, [sp, #12]
	subs	r3, r2, r3
	.loc 1 53 0
	mov	r0, r3
	add	sp, sp, #16
.LCFI1:
	@ sp needed
	bx	lr
.LFE199:
	.size	fifo_length, .-fifo_length
	.section	.bss.m_event_handler,"aw",%nobits
	.align	2
	.type	m_event_handler, %object
	.size	m_event_handler, 4
m_event_handler:
	.space	4
	.section	.bss.tx_buffer,"aw",%nobits
	.align	2
	.type	tx_buffer, %object
	.size	tx_buffer, 1
tx_buffer:
	.space	1
	.section	.bss.rx_buffer,"aw",%nobits
	.align	2
	.type	rx_buffer, %object
	.size	rx_buffer, 1
rx_buffer:
	.space	1
	.section	.bss.m_rx_ovf,"aw",%nobits
	.type	m_rx_ovf, %object
	.size	m_rx_ovf, 1
m_rx_ovf:
	.space	1
	.section	.bss.m_rx_fifo,"aw",%nobits
	.align	2
	.type	m_rx_fifo, %object
	.size	m_rx_fifo, 16
m_rx_fifo:
	.space	16
	.section	.bss.m_tx_fifo,"aw",%nobits
	.align	2
	.type	m_tx_fifo, %object
	.size	m_tx_fifo, 16
m_tx_fifo:
	.space	16
	.section	.text.uart_event_handler,"ax",%progbits
	.align	1
	.syntax unified
	.thumb
	.thumb_func
	.fpu fpv4-sp-d16
	.type	uart_event_handler, %function
uart_event_handler:
.LFB200:
	.loc 1 67 0
	@ args = 0, pretend = 0, frame = 24
	@ frame_needed = 0, uses_anonymous_args = 0
	push	{lr}
.LCFI2:
	sub	sp, sp, #28
.LCFI3:
	str	r0, [sp, #4]
	str	r1, [sp]
	.loc 1 71 0
	ldr	r3, [sp, #4]
	ldrb	r3, [r3]	@ zero_extendqisi2
	cmp	r3, #1
	beq	.L5
	cmp	r3, #2
	beq	.L6
	cmp	r3, #0
	beq	.L7
	.loc 1 124 0
	b	.L12
.L5:
	.loc 1 75 0
	ldr	r3, [sp, #4]
	ldr	r3, [r3, #4]
	ldrb	r3, [r3]	@ zero_extendqisi2
	mov	r1, r3
	ldr	r0, .L16
	bl	app_fifo_put
	str	r0, [sp, #20]
	.loc 1 76 0
	ldr	r3, [sp, #20]
	cmp	r3, #0
	beq	.L8
	.loc 1 78 0
	movs	r3, #1
	strb	r3, [sp, #12]
	.loc 1 79 0
	ldr	r3, [sp, #20]
	str	r3, [sp, #16]
	.loc 1 80 0
	ldr	r3, .L16+4
	ldr	r3, [r3]
	add	r2, sp, #12
	mov	r0, r2
	blx	r3
.LVL0:
	b	.L9
.L8:
	.loc 1 83 0
	ldr	r0, .L16
	bl	fifo_length
	mov	r3, r0
	cmp	r3, #0
	beq	.L9
	.loc 1 85 0
	movs	r3, #0
	strb	r3, [sp, #12]
	.loc 1 86 0
	ldr	r3, .L16+4
	ldr	r3, [r3]
	add	r2, sp, #12
	mov	r0, r2
	blx	r3
.LVL1:
.L9:
	.loc 1 90 0
	ldr	r0, .L16
	bl	fifo_length
	mov	r2, r0
	ldr	r3, .L16
	ldrh	r3, [r3, #4]
	cmp	r2, r3
	bhi	.L10
	.loc 1 92 0
	movs	r2, #1
	ldr	r1, .L16+8
	ldr	r0, .L16+12
	bl	nrf_drv_uart_rx
	.loc 1 100 0
	b	.L12
.L10:
	.loc 1 97 0
	ldr	r3, .L16+16
	movs	r2, #1
	strb	r2, [r3]
	.loc 1 100 0
	b	.L12
.L6:
	.loc 1 103 0
	movs	r3, #2
	strb	r3, [sp, #12]
	.loc 1 104 0
	ldr	r3, [sp, #4]
	ldr	r3, [r3, #12]
	str	r3, [sp, #16]
	.loc 1 105 0
	movs	r2, #1
	ldr	r1, .L16+8
	ldr	r0, .L16+12
	bl	nrf_drv_uart_rx
	.loc 1 106 0
	ldr	r3, .L16+4
	ldr	r3, [r3]
	add	r2, sp, #12
	mov	r0, r2
	blx	r3
.LVL2:
	.loc 1 107 0
	b	.L12
.L7:
	.loc 1 111 0
	ldr	r1, .L16+20
	ldr	r0, .L16+24
	bl	app_fifo_get
	mov	r3, r0
	cmp	r3, #0
	bne	.L13
	.loc 1 113 0
	movs	r2, #1
	ldr	r1, .L16+20
	ldr	r0, .L16+12
	bl	nrf_drv_uart_tx
	.loc 1 121 0
	b	.L15
.L13:
	.loc 1 118 0
	movs	r3, #3
	strb	r3, [sp, #12]
	.loc 1 119 0
	ldr	r3, .L16+4
	ldr	r3, [r3]
	add	r2, sp, #12
	mov	r0, r2
	blx	r3
.LVL3:
.L15:
	.loc 1 121 0
	nop
.L12:
	.loc 1 126 0 discriminator 1
	nop
	add	sp, sp, #28
.LCFI4:
	@ sp needed
	ldr	pc, [sp], #4
.L17:
	.align	2
.L16:
	.word	m_rx_fifo
	.word	m_event_handler
	.word	rx_buffer
	.word	app_uart_inst
	.word	m_rx_ovf
	.word	tx_buffer
	.word	m_tx_fifo
.LFE200:
	.size	uart_event_handler, .-uart_event_handler
	.section .rodata
	.align	2
.LC0:
	.word	-1
	.word	-1
	.word	-1
	.word	-1
	.word	0
	.byte	0
	.byte	0
	.space	2
	.word	30801920
	.byte	7
	.byte	1
	.space	2
	.section	.text.app_uart_init,"ax",%progbits
	.align	1
	.global	app_uart_init
	.syntax unified
	.thumb
	.thumb_func
	.fpu fpv4-sp-d16
	.type	app_uart_init, %function
app_uart_init:
.LFB201:
	.loc 1 133 0
	@ args = 0, pretend = 0, frame = 56
	@ frame_needed = 0, uses_anonymous_args = 0
	push	{r4, r5, lr}
.LCFI5:
	sub	sp, sp, #60
.LCFI6:
	str	r0, [sp, #12]
	str	r1, [sp, #8]
	str	r2, [sp, #4]
	strb	r3, [sp, #3]
	.loc 1 136 0
	ldr	r2, .L29
	ldr	r3, [sp, #4]
	str	r3, [r2]
	.loc 1 138 0
	ldr	r3, [sp, #8]
	cmp	r3, #0
	bne	.L19
	.loc 1 140 0
	movs	r3, #7
	b	.L28
.L19:
	.loc 1 144 0
	ldr	r3, [sp, #8]
	ldr	r1, [r3]
	ldr	r3, [sp, #8]
	ldr	r3, [r3, #4]
	uxth	r3, r3
	mov	r2, r3
	ldr	r0, .L29+4
	bl	app_fifo_init
	str	r0, [sp, #52]
	.loc 1 145 0
	ldr	r3, [sp, #52]
	cmp	r3, #0
	beq	.L21
	.loc 1 145 0 is_stmt 0 discriminator 1
	ldr	r3, [sp, #52]
	b	.L28
.L21:
	.loc 1 148 0 is_stmt 1
	ldr	r3, [sp, #8]
	ldr	r1, [r3, #8]
	ldr	r3, [sp, #8]
	ldr	r3, [r3, #12]
	uxth	r3, r3
	mov	r2, r3
	ldr	r0, .L29+8
	bl	app_fifo_init
	str	r0, [sp, #52]
	.loc 1 149 0
	ldr	r3, [sp, #52]
	cmp	r3, #0
	beq	.L22
	.loc 1 149 0 is_stmt 0 discriminator 1
	ldr	r3, [sp, #52]
	b	.L28
.L22:
	.loc 1 151 0 is_stmt 1
	ldr	r3, .L29+12
	add	r4, sp, #20
	mov	r5, r3
	ldmia	r5!, {r0, r1, r2, r3}
	stmia	r4!, {r0, r1, r2, r3}
	ldm	r5, {r0, r1, r2, r3}
	stm	r4, {r0, r1, r2, r3}
	.loc 1 152 0
	ldr	r3, [sp, #12]
	ldr	r3, [r3, #20]
	str	r3, [sp, #44]
	.loc 1 153 0
	ldr	r3, [sp, #12]
	ldrb	r3, [r3, #16]	@ zero_extendqisi2
	.loc 1 154 0
	cmp	r3, #0
	ite	ne
	movne	r3, #1
	moveq	r3, #0
	uxtb	r3, r3
	.loc 1 153 0
	strb	r3, [sp, #40]
	.loc 1 155 0
	ldrb	r3, [sp, #3]
	strb	r3, [sp, #48]
	.loc 1 156 0
	ldr	r3, [sp, #12]
	ldrb	r3, [r3, #17]	@ zero_extendqisi2
	cmp	r3, #0
	beq	.L23
	.loc 1 156 0 is_stmt 0 discriminator 1
	movs	r3, #14
	b	.L24
.L23:
	.loc 1 156 0 discriminator 2
	movs	r3, #0
.L24:
	.loc 1 156 0 discriminator 4
	strb	r3, [sp, #41]
	.loc 1 157 0 is_stmt 1 discriminator 4
	ldr	r3, [sp, #12]
	ldr	r3, [r3, #12]
	str	r3, [sp, #28]
	.loc 1 158 0 discriminator 4
	ldr	r3, [sp, #12]
	ldr	r3, [r3, #8]
	str	r3, [sp, #32]
	.loc 1 159 0 discriminator 4
	ldr	r3, [sp, #12]
	ldr	r3, [r3]
	str	r3, [sp, #24]
	.loc 1 160 0 discriminator 4
	ldr	r3, [sp, #12]
	ldr	r3, [r3, #4]
	str	r3, [sp, #20]
	.loc 1 162 0 discriminator 4
	add	r3, sp, #20
	ldr	r2, .L29+16
	mov	r1, r3
	ldr	r0, .L29+20
	bl	nrf_drv_uart_init
	str	r0, [sp, #52]
	.loc 1 163 0 discriminator 4
	ldr	r3, [sp, #52]
	cmp	r3, #0
	beq	.L25
	.loc 1 163 0 is_stmt 0 discriminator 1
	ldr	r3, [sp, #52]
	b	.L28
.L25:
	.loc 1 164 0 is_stmt 1
	ldr	r3, .L29+24
	movs	r2, #0
	strb	r2, [r3]
	.loc 1 167 0
	ldr	r3, [sp, #12]
	ldr	r3, [r3]
	cmp	r3, #-1
	beq	.L26
	.loc 1 170 0
	ldrb	r3, [sp, #49]	@ zero_extendqisi2
	eor	r3, r3, #1
	uxtb	r3, r3
	cmp	r3, #0
	beq	.L27
	.loc 1 173 0
	ldr	r0, .L29+20
	bl	nrf_drv_uart_rx_enable
.L27:
	.loc 1 176 0
	movs	r2, #1
	ldr	r1, .L29+28
	ldr	r0, .L29+20
	bl	nrf_drv_uart_rx
	mov	r3, r0
	b	.L28
.L26:
	.loc 1 180 0
	movs	r3, #0
.L28:
	.loc 1 182 0 discriminator 1
	mov	r0, r3
	add	sp, sp, #60
.LCFI7:
	@ sp needed
	pop	{r4, r5, pc}
.L30:
	.align	2
.L29:
	.word	m_event_handler
	.word	m_rx_fifo
	.word	m_tx_fifo
	.word	.LC0
	.word	uart_event_handler
	.word	app_uart_inst
	.word	m_rx_ovf
	.word	rx_buffer
.LFE201:
	.size	app_uart_init, .-app_uart_init
	.section	.text.app_uart_flush,"ax",%progbits
	.align	1
	.global	app_uart_flush
	.syntax unified
	.thumb
	.thumb_func
	.fpu fpv4-sp-d16
	.type	app_uart_flush, %function
app_uart_flush:
.LFB202:
	.loc 1 186 0
	@ args = 0, pretend = 0, frame = 8
	@ frame_needed = 0, uses_anonymous_args = 0
	push	{lr}
.LCFI8:
	sub	sp, sp, #12
.LCFI9:
	.loc 1 189 0
	ldr	r0, .L35
	bl	app_fifo_flush
	str	r0, [sp, #4]
	.loc 1 190 0
	ldr	r3, [sp, #4]
	cmp	r3, #0
	beq	.L32
	.loc 1 190 0 is_stmt 0 discriminator 1
	ldr	r3, [sp, #4]
	b	.L33
.L32:
	.loc 1 192 0 is_stmt 1
	ldr	r0, .L35+4
	bl	app_fifo_flush
	str	r0, [sp, #4]
	.loc 1 193 0
	ldr	r3, [sp, #4]
	cmp	r3, #0
	beq	.L34
	.loc 1 193 0 is_stmt 0 discriminator 1
	ldr	r3, [sp, #4]
	b	.L33
.L34:
	.loc 1 195 0 is_stmt 1
	movs	r3, #0
.L33:
	.loc 1 196 0
	mov	r0, r3
	add	sp, sp, #12
.LCFI10:
	@ sp needed
	ldr	pc, [sp], #4
.L36:
	.align	2
.L35:
	.word	m_rx_fifo
	.word	m_tx_fifo
.LFE202:
	.size	app_uart_flush, .-app_uart_flush
	.section	.text.app_uart_get,"ax",%progbits
	.align	1
	.global	app_uart_get
	.syntax unified
	.thumb
	.thumb_func
	.fpu fpv4-sp-d16
	.type	app_uart_get, %function
app_uart_get:
.LFB203:
	.loc 1 200 0
	@ args = 0, pretend = 0, frame = 24
	@ frame_needed = 0, uses_anonymous_args = 0
	push	{lr}
.LCFI11:
	sub	sp, sp, #28
.LCFI12:
	str	r0, [sp, #4]
	.loc 1 202 0
	ldr	r3, .L40
	ldrb	r3, [r3]
	strb	r3, [sp, #23]
	.loc 1 204 0
	ldr	r1, [sp, #4]
	ldr	r0, .L40+4
	bl	app_fifo_get
	str	r0, [sp, #16]
	.loc 1 207 0
	ldrb	r3, [sp, #23]	@ zero_extendqisi2
	cmp	r3, #0
	beq	.L38
.LBB2:
	.loc 1 209 0
	ldr	r3, .L40
	movs	r2, #0
	strb	r2, [r3]
	.loc 1 210 0
	movs	r2, #1
	ldr	r1, .L40+8
	ldr	r0, .L40+12
	bl	nrf_drv_uart_rx
	str	r0, [sp, #12]
.LBB3:
	.loc 1 213 0
	ldr	r3, [sp, #12]
	str	r3, [sp, #8]
	ldr	r3, [sp, #8]
	cmp	r3, #0
	beq	.L38
	.loc 1 213 0 is_stmt 0 discriminator 1
	ldr	r0, [sp, #8]
	bl	app_error_handler_bare
.L38:
.LBE3:
.LBE2:
	.loc 1 216 0 is_stmt 1
	ldr	r3, [sp, #16]
	.loc 1 217 0
	mov	r0, r3
	add	sp, sp, #28
.LCFI13:
	@ sp needed
	ldr	pc, [sp], #4
.L41:
	.align	2
.L40:
	.word	m_rx_ovf
	.word	m_rx_fifo
	.word	rx_buffer
	.word	app_uart_inst
.LFE203:
	.size	app_uart_get, .-app_uart_get
	.section	.text.app_uart_put,"ax",%progbits
	.align	1
	.global	app_uart_put
	.syntax unified
	.thumb
	.thumb_func
	.fpu fpv4-sp-d16
	.type	app_uart_put, %function
app_uart_put:
.LFB204:
	.loc 1 221 0
	@ args = 0, pretend = 0, frame = 16
	@ frame_needed = 0, uses_anonymous_args = 0
	push	{lr}
.LCFI14:
	sub	sp, sp, #20
.LCFI15:
	mov	r3, r0
	strb	r3, [sp, #7]
	.loc 1 223 0
	ldrb	r3, [sp, #7]	@ zero_extendqisi2
	mov	r1, r3
	ldr	r0, .L45
	bl	app_fifo_put
	str	r0, [sp, #12]
	.loc 1 224 0
	ldr	r3, [sp, #12]
	cmp	r3, #0
	bne	.L43
	.loc 1 230 0
	ldr	r0, .L45+4
	bl	nrf_drv_uart_tx_in_progress
	mov	r3, r0
	eor	r3, r3, #1
	uxtb	r3, r3
	cmp	r3, #0
	beq	.L43
	.loc 1 236 0
	ldr	r1, .L45+8
	ldr	r0, .L45
	bl	app_fifo_get
	mov	r3, r0
	cmp	r3, #0
	bne	.L43
	.loc 1 238 0
	movs	r2, #1
	ldr	r1, .L45+8
	ldr	r0, .L45+4
	bl	nrf_drv_uart_tx
	str	r0, [sp, #12]
.L43:
	.loc 1 242 0
	ldr	r3, [sp, #12]
	.loc 1 243 0
	mov	r0, r3
	add	sp, sp, #20
.LCFI16:
	@ sp needed
	ldr	pc, [sp], #4
.L46:
	.align	2
.L45:
	.word	m_tx_fifo
	.word	app_uart_inst
	.word	tx_buffer
.LFE204:
	.size	app_uart_put, .-app_uart_put
	.section	.text.app_uart_close,"ax",%progbits
	.align	1
	.global	app_uart_close
	.syntax unified
	.thumb
	.thumb_func
	.fpu fpv4-sp-d16
	.type	app_uart_close, %function
app_uart_close:
.LFB205:
	.loc 1 247 0
	@ args = 0, pretend = 0, frame = 0
	@ frame_needed = 0, uses_anonymous_args = 0
	push	{r3, lr}
.LCFI17:
	.loc 1 248 0
	ldr	r0, .L49
	bl	nrf_drv_uart_uninit
	.loc 1 249 0
	movs	r3, #0
	.loc 1 250 0
	mov	r0, r3
	pop	{r3, pc}
.L50:
	.align	2
.L49:
	.word	app_uart_inst
.LFE205:
	.size	app_uart_close, .-app_uart_close
	.section	.debug_frame,"",%progbits
.Lframe0:
	.4byte	.LECIE0-.LSCIE0
.LSCIE0:
	.4byte	0xffffffff
	.byte	0x3
	.ascii	"\000"
	.uleb128 0x1
	.sleb128 -4
	.uleb128 0xe
	.byte	0xc
	.uleb128 0xd
	.uleb128 0
	.align	2
.LECIE0:
.LSFDE0:
	.4byte	.LEFDE0-.LASFDE0
.LASFDE0:
	.4byte	.Lframe0
	.4byte	.LFB199
	.4byte	.LFE199-.LFB199
	.byte	0x4
	.4byte	.LCFI0-.LFB199
	.byte	0xe
	.uleb128 0x10
	.byte	0x4
	.4byte	.LCFI1-.LCFI0
	.byte	0xe
	.uleb128 0
	.align	2
.LEFDE0:
.LSFDE2:
	.4byte	.LEFDE2-.LASFDE2
.LASFDE2:
	.4byte	.Lframe0
	.4byte	.LFB200
	.4byte	.LFE200-.LFB200
	.byte	0x4
	.4byte	.LCFI2-.LFB200
	.byte	0xe
	.uleb128 0x4
	.byte	0x8e
	.uleb128 0x1
	.byte	0x4
	.4byte	.LCFI3-.LCFI2
	.byte	0xe
	.uleb128 0x20
	.byte	0x4
	.4byte	.LCFI4-.LCFI3
	.byte	0xe
	.uleb128 0x4
	.align	2
.LEFDE2:
.LSFDE4:
	.4byte	.LEFDE4-.LASFDE4
.LASFDE4:
	.4byte	.Lframe0
	.4byte	.LFB201
	.4byte	.LFE201-.LFB201
	.byte	0x4
	.4byte	.LCFI5-.LFB201
	.byte	0xe
	.uleb128 0xc
	.byte	0x84
	.uleb128 0x3
	.byte	0x85
	.uleb128 0x2
	.byte	0x8e
	.uleb128 0x1
	.byte	0x4
	.4byte	.LCFI6-.LCFI5
	.byte	0xe
	.uleb128 0x48
	.byte	0x4
	.4byte	.LCFI7-.LCFI6
	.byte	0xe
	.uleb128 0xc
	.align	2
.LEFDE4:
.LSFDE6:
	.4byte	.LEFDE6-.LASFDE6
.LASFDE6:
	.4byte	.Lframe0
	.4byte	.LFB202
	.4byte	.LFE202-.LFB202
	.byte	0x4
	.4byte	.LCFI8-.LFB202
	.byte	0xe
	.uleb128 0x4
	.byte	0x8e
	.uleb128 0x1
	.byte	0x4
	.4byte	.LCFI9-.LCFI8
	.byte	0xe
	.uleb128 0x10
	.byte	0x4
	.4byte	.LCFI10-.LCFI9
	.byte	0xe
	.uleb128 0x4
	.align	2
.LEFDE6:
.LSFDE8:
	.4byte	.LEFDE8-.LASFDE8
.LASFDE8:
	.4byte	.Lframe0
	.4byte	.LFB203
	.4byte	.LFE203-.LFB203
	.byte	0x4
	.4byte	.LCFI11-.LFB203
	.byte	0xe
	.uleb128 0x4
	.byte	0x8e
	.uleb128 0x1
	.byte	0x4
	.4byte	.LCFI12-.LCFI11
	.byte	0xe
	.uleb128 0x20
	.byte	0x4
	.4byte	.LCFI13-.LCFI12
	.byte	0xe
	.uleb128 0x4
	.align	2
.LEFDE8:
.LSFDE10:
	.4byte	.LEFDE10-.LASFDE10
.LASFDE10:
	.4byte	.Lframe0
	.4byte	.LFB204
	.4byte	.LFE204-.LFB204
	.byte	0x4
	.4byte	.LCFI14-.LFB204
	.byte	0xe
	.uleb128 0x4
	.byte	0x8e
	.uleb128 0x1
	.byte	0x4
	.4byte	.LCFI15-.LCFI14
	.byte	0xe
	.uleb128 0x18
	.byte	0x4
	.4byte	.LCFI16-.LCFI15
	.byte	0xe
	.uleb128 0x4
	.align	2
.LEFDE10:
.LSFDE12:
	.4byte	.LEFDE12-.LASFDE12
.LASFDE12:
	.4byte	.Lframe0
	.4byte	.LFB205
	.4byte	.LFE205-.LFB205
	.byte	0x4
	.4byte	.LCFI17-.LFB205
	.byte	0xe
	.uleb128 0x8
	.byte	0x83
	.uleb128 0x2
	.byte	0x8e
	.uleb128 0x1
	.align	2
.LEFDE12:
	.text
.Letext0:
	.file 2 "C:/Program Files/SEGGER/SEGGER Embedded Studio for ARM 4.12/include/stdint.h"
	.file 3 "C:/Program Files/SEGGER/SEGGER Embedded Studio for ARM 4.12/include/__crossworks.h"
	.file 4 "../../../nRF5_SDK_14.2.0/components/libraries/util/sdk_errors.h"
	.file 5 "C:/Users/Admin/AppData/Local/SEGGER/SEGGER Embedded Studio/v3/packages/CMSIS_5/CMSIS/Core/Include/core_cm4.h"
	.file 6 "C:/Users/Admin/AppData/Local/SEGGER/SEGGER Embedded Studio/v3/packages/nRF/CMSIS/Device/Include/system_nrf52.h"
	.file 7 "C:/Users/Admin/AppData/Local/SEGGER/SEGGER Embedded Studio/v3/packages/nRF/CMSIS/Device/Include/nrf52.h"
	.file 8 "../../../nRF5_SDK_14.2.0/components/libraries/util/app_util.h"
	.file 9 "C:/Program Files/SEGGER/SEGGER Embedded Studio for ARM 4.12/include/stdio.h"
	.file 10 "../../../nRF5_SDK_14.2.0/components/libraries/util/app_util_platform.h"
	.file 11 "C:\\Users\\Admin\\Desktop\\WSC_FTSP\\code\\WCS\\nRF5_SDK_14.2.0\\components\\libraries\\uart\\app_uart.h"
	.file 12 "../../../nRF5_SDK_14.2.0/components/libraries/fifo/app_fifo.h"
	.file 13 "../../../nRF5_SDK_14.2.0/components/drivers_nrf/hal/nrf_uart.h"
	.file 14 "../../../nRF5_SDK_14.2.0/components/drivers_nrf/uart/nrf_drv_uart.h"