	.cpu cortex-m4
	.eabi_attribute 27, 1
	.eabi_attribute 28, 1
	.eabi_attribute 20, 1
	.eabi_attribute 21, 1
	.eabi_attribute 23, 3
	.eabi_attribute 24, 1
	.eabi_attribute 25, 1
	.eabi_attribute 26, 1
	.eabi_attribute 30, 6
	.eabi_attribute 34, 1
	.eabi_attribute 18, 4
	.file	"system_nrf52.c"
	.text
.Ltext0:
	.section	.text.__NVIC_SystemReset,"ax",%progbits
	.align	1
	.syntax unified
	.thumb
	.thumb_func
	.fpu fpv4-sp-d16
	.type	__NVIC_SystemReset, %function
__NVIC_SystemReset:
.LFB117:
	.file 1 "C:/Users/Admin/AppData/Local/SEGGER/SEGGER Embedded Studio/v3/packages/CMSIS_5/CMSIS/Core/Include/core_cm4.h"
	.loc 1 1940 0
	@ args = 0, pretend = 0, frame = 0
	@ frame_needed = 0, uses_anonymous_args = 0
	@ link register save eliminated.
.LBB10:
.LBB11:
	.file 2 "C:/Users/Admin/AppData/Local/SEGGER/SEGGER Embedded Studio/v3/packages/CMSIS_5/CMSIS/Core/Include/cmsis_gcc.h"
	.loc 2 879 0
	.syntax unified
@ 879 "C:/Users/Admin/AppData/Local/SEGGER/SEGGER Embedded Studio/v3/packages/CMSIS_5/CMSIS/Core/Include/cmsis_gcc.h" 1
	dsb 0xF
@ 0 "" 2
	.thumb
	.syntax unified
.LBE11:
.LBE10:
	.loc 1 1944 0
	ldr	r3, .L3
	ldr	r3, [r3, #12]
	and	r2, r3, #1792
	.loc 1 1943 0
	ldr	r1, .L3
	.loc 1 1944 0
	ldr	r3, .L3+4
	orrs	r3, r3, r2
	.loc 1 1943 0
	str	r3, [r1, #12]
.LBB12:
.LBB13:
	.loc 2 879 0
	.syntax unified
@ 879 "C:/Users/Admin/AppData/Local/SEGGER/SEGGER Embedded Studio/v3/packages/CMSIS_5/CMSIS/Core/Include/cmsis_gcc.h" 1
	dsb 0xF
@ 0 "" 2
	.thumb
	.syntax unified
.L2:
.LBE13:
.LBE12:
	.loc 1 1950 0 discriminator 1
	.syntax unified
@ 1950 "C:/Users/Admin/AppData/Local/SEGGER/SEGGER Embedded Studio/v3/packages/CMSIS_5/CMSIS/Core/Include/core_cm4.h" 1
	nop
@ 0 "" 2
	.thumb
	.syntax unified
	b	.L2
.L4:
	.align	2
.L3:
	.word	-536810240
	.word	100270084
.LFE117:
	.size	__NVIC_SystemReset, .-__NVIC_SystemReset
	.global	SystemCoreClock
	.section	.data.SystemCoreClock,"aw",%progbits
	.align	2
	.type	SystemCoreClock, %object
	.size	SystemCoreClock, 4
SystemCoreClock:
	.word	64000000
	.section	.text.SystemCoreClockUpdate,"ax",%progbits
	.align	1
	.global	SystemCoreClockUpdate
	.syntax unified
	.thumb
	.thumb_func
	.fpu fpv4-sp-d16
	.type	SystemCoreClockUpdate, %function
SystemCoreClockUpdate:
.LFB131:
	.file 3 "E:\\WSC_FTSP_ver_onemess\\WSC_FTSP\\code\\WCS\\nRF5_SDK_14.2.0\\components\\toolchain\\system_nrf52.c"
	.loc 3 56 0
	@ args = 0, pretend = 0, frame = 0
	@ frame_needed = 0, uses_anonymous_args = 0
	@ link register save eliminated.
	.loc 3 57 0
	ldr	r3, .L6
	ldr	r2, .L6+4
	str	r2, [r3]
	.loc 3 58 0
	nop
	bx	lr
.L7:
	.align	2
.L6:
	.word	SystemCoreClock
	.word	64000000
.LFE131:
	.size	SystemCoreClockUpdate, .-SystemCoreClockUpdate
	.section	.text.SystemInit,"ax",%progbits
	.align	1
	.global	SystemInit
	.syntax unified
	.thumb
	.thumb_func
	.fpu fpv4-sp-d16
	.type	SystemInit, %function
SystemInit:
.LFB132:
	.loc 3 61 0
	@ args = 0, pretend = 0, frame = 0
	@ frame_needed = 0, uses_anonymous_args = 0
	push	{r3, lr}
.LCFI0:
	.loc 3 84 0
	bl	errata_12
	mov	r3, r0
	cmp	r3, #0
	beq	.L9
	.loc 3 85 0
	ldr	r3, .L25
	ldr	r3, [r3]
	lsrs	r3, r3, #8
	ldr	r2, .L25+4
	and	r3, r3, #31
	str	r3, [r2]
.L9:
	.loc 3 90 0
	bl	errata_16
	mov	r3, r0
	cmp	r3, #0
	beq	.L10
	.loc 3 91 0
	ldr	r3, .L25+8
	ldr	r2, .L25+12
	str	r2, [r3]
.L10:
	.loc 3 96 0
	bl	errata_31
	mov	r3, r0
	cmp	r3, #0
	beq	.L11
	.loc 3 97 0
	ldr	r3, .L25+16
	ldr	r3, [r3]
	lsrs	r3, r3, #13
	ldr	r2, .L25+20
	and	r3, r3, #7
	str	r3, [r2]
.L11:
	.loc 3 102 0
	bl	errata_32
	mov	r3, r0
	cmp	r3, #0
	beq	.L12
	.loc 3 103 0
	ldr	r3, .L25+24
	ldr	r3, [r3, #12]
	ldr	r2, .L25+24
	bic	r3, r3, #16777216
	str	r3, [r2, #12]
.L12:
	.loc 3 108 0
	bl	errata_36
	mov	r3, r0
	cmp	r3, #0
	beq	.L13
	.loc 3 109 0
	mov	r3, #1073741824
	movs	r2, #0
	str	r2, [r3, #268]
	.loc 3 110 0
	mov	r3, #1073741824
	movs	r2, #0
	str	r2, [r3, #272]
	.loc 3 111 0
	mov	r3, #1073741824
	movs	r2, #0
	str	r2, [r3, #1336]
.L13:
	.loc 3 116 0
	bl	errata_37
	mov	r3, r0
	cmp	r3, #0
	beq	.L14
	.loc 3 117 0
	ldr	r3, .L25+28
	movs	r2, #3
	str	r2, [r3]
.L14:
	.loc 3 122 0
	bl	errata_57
	mov	r3, r0
	cmp	r3, #0
	beq	.L15
	.loc 3 123 0
	ldr	r3, .L25+32
	movs	r2, #5
	str	r2, [r3]
	.loc 3 124 0
	ldr	r3, .L25+36
	movs	r2, #1
	str	r2, [r3]
	.loc 3 125 0
	ldr	r3, .L25+40
	movs	r2, #0
	str	r2, [r3]
	.loc 3 126 0
	ldr	r3, .L25+44
	movs	r2, #63
	str	r2, [r3]
.L15:
	.loc 3 131 0
	bl	errata_66
	mov	r3, r0
	cmp	r3, #0
	beq	.L16
	.loc 3 132 0
	mov	r3, #268435456
	ldr	r2, .L25+48
	ldr	r3, [r3, #1028]
	str	r3, [r2, #1312]
	.loc 3 133 0
	mov	r3, #268435456
	ldr	r2, .L25+48
	ldr	r3, [r3, #1032]
	str	r3, [r2, #1316]
	.loc 3 134 0
	mov	r3, #268435456
	ldr	r2, .L25+48
	ldr	r3, [r3, #1036]
	str	r3, [r2, #1320]
	.loc 3 135 0
	mov	r3, #268435456
	ldr	r2, .L25+48
	ldr	r3, [r3, #1040]
	str	r3, [r2, #1324]
	.loc 3 136 0
	mov	r3, #268435456
	ldr	r2, .L25+48
	ldr	r3, [r3, #1044]
	str	r3, [r2, #1328]
	.loc 3 137 0
	mov	r3, #268435456
	ldr	r2, .L25+48
	ldr	r3, [r3, #1048]
	str	r3, [r2, #1332]
	.loc 3 138 0
	mov	r3, #268435456
	ldr	r2, .L25+48
	ldr	r3, [r3, #1052]
	str	r3, [r2, #1344]
	.loc 3 139 0
	mov	r3, #268435456
	ldr	r2, .L25+48
	ldr	r3, [r3, #1056]
	str	r3, [r2, #1348]
	.loc 3 140 0
	mov	r3, #268435456
	ldr	r2, .L25+48
	ldr	r3, [r3, #1060]
	str	r3, [r2, #1352]
	.loc 3 141 0
	mov	r3, #268435456
	ldr	r2, .L25+48
	ldr	r3, [r3, #1064]
	str	r3, [r2, #1356]
	.loc 3 142 0
	mov	r3, #268435456
	ldr	r2, .L25+48
	ldr	r3, [r3, #1068]
	str	r3, [r2, #1360]
	.loc 3 143 0
	mov	r3, #268435456
	ldr	r2, .L25+48
	ldr	r3, [r3, #1072]
	str	r3, [r2, #1364]
	.loc 3 144 0
	mov	r3, #268435456
	ldr	r2, .L25+48
	ldr	r3, [r3, #1076]
	str	r3, [r2, #1376]
	.loc 3 145 0
	mov	r3, #268435456
	ldr	r2, .L25+48
	ldr	r3, [r3, #1080]
	str	r3, [r2, #1380]
	.loc 3 146 0
	mov	r3, #268435456
	ldr	r2, .L25+48
	ldr	r3, [r3, #1084]
	str	r3, [r2, #1384]
	.loc 3 147 0
	mov	r3, #268435456
	ldr	r2, .L25+48
	ldr	r3, [r3, #1088]
	str	r3, [r2, #1388]
	.loc 3 148 0
	mov	r3, #268435456
	ldr	r2, .L25+48
	ldr	r3, [r3, #1092]
	str	r3, [r2, #1392]
.L16:
	.loc 3 153 0
	bl	errata_108
	mov	r3, r0
	cmp	r3, #0
	beq	.L17
	.loc 3 154 0
	ldr	r3, .L25+52
	ldr	r3, [r3]
	ldr	r2, .L25+56
	and	r3, r3, #79
	str	r3, [r2]
.L17:
	.loc 3 159 0
	bl	errata_136
	mov	r3, r0
	cmp	r3, #0
	beq	.L18
	.loc 3 160 0
	mov	r3, #1073741824
	ldr	r3, [r3, #1024]
	and	r3, r3, #1
	cmp	r3, #0
	beq	.L18
	.loc 3 161 0
	mov	r3, #1073741824
	mvn	r2, #1
	str	r2, [r3, #1024]
.L18:
	.loc 3 169 0
	ldr	r3, .L25+60
	ldr	r3, [r3, #136]
	ldr	r2, .L25+60
	orr	r3, r3, #15728640
	str	r3, [r2, #136]
.LBB14:
.LBB15:
	.loc 2 879 0
	.syntax unified
@ 879 "C:/Users/Admin/AppData/Local/SEGGER/SEGGER Embedded Studio/v3/packages/CMSIS_5/CMSIS/Core/Include/cmsis_gcc.h" 1
	dsb 0xF
@ 0 "" 2
	.thumb
	.syntax unified
.LBE15:
.LBE14:
.LBB16:
.LBB17:
	.loc 2 868 0
	.syntax unified
@ 868 "C:/Users/Admin/AppData/Local/SEGGER/SEGGER Embedded Studio/v3/packages/CMSIS_5/CMSIS/Core/Include/cmsis_gcc.h" 1
	isb 0xF
@ 0 "" 2
	.thumb
	.syntax unified
.LBE17:
.LBE16:
	.loc 3 193 0
	mov	r3, #268439552
	ldr	r3, [r3, #512]
	cmp	r3, #0
	blt	.L19
	.loc 3 194 0 discriminator 1
	mov	r3, #268439552
	ldr	r3, [r3, #516]
	.loc 3 193 0 discriminator 1
	cmp	r3, #0
	bge	.L20
.L19:
	.loc 3 195 0
	ldr	r3, .L25+64
	movs	r2, #1
	str	r2, [r3, #1284]
	.loc 3 196 0
	nop
.L21:
	.loc 3 196 0 is_stmt 0 discriminator 1
	ldr	r3, .L25+64
	ldr	r3, [r3, #1024]
	cmp	r3, #0
	beq	.L21
	.loc 3 197 0 is_stmt 1
	mov	r3, #268439552
	movs	r2, #21
	str	r2, [r3, #512]
	.loc 3 198 0
	nop
.L22:
	.loc 3 198 0 is_stmt 0 discriminator 1
	ldr	r3, .L25+64
	ldr	r3, [r3, #1024]
	cmp	r3, #0
	beq	.L22
	.loc 3 199 0 is_stmt 1
	mov	r3, #268439552
	movs	r2, #21
	str	r2, [r3, #516]
	.loc 3 200 0
	nop
.L23:
	.loc 3 200 0 is_stmt 0 discriminator 1
	ldr	r3, .L25+64
	ldr	r3, [r3, #1024]
	cmp	r3, #0
	beq	.L23
	.loc 3 201 0 is_stmt 1
	ldr	r3, .L25+64
	movs	r2, #0
	str	r2, [r3, #1284]
	.loc 3 202 0
	nop
.L24:
	.loc 3 202 0 is_stmt 0 discriminator 1
	ldr	r3, .L25+64
	ldr	r3, [r3, #1024]
	cmp	r3, #0
	beq	.L24
	.loc 3 203 0 is_stmt 1
	bl	__NVIC_SystemReset
.L20:
	.loc 3 207 0
	bl	SystemCoreClockUpdate
	.loc 3 208 0
	nop
	pop	{r3, pc}
.L26:
	.align	2
.L25:
	.word	268436260
	.word	1073820992
	.word	1074249844
	.word	-1163005939
	.word	268436036
	.word	1073743164
	.word	-536810000
	.word	1073743264
	.word	1073763856
	.word	1073763976
	.word	1073763864
	.word	1073763860
	.word	1073790976
	.word	268436056
	.word	1073745636
	.word	-536810240
	.word	1073864704
.LFE132:
	.size	SystemInit, .-SystemInit
	.section	.text.errata_12,"ax",%progbits
	.align	1
	.syntax unified
	.thumb
	.thumb_func
	.fpu fpv4-sp-d16
	.type	errata_12, %function
errata_12:
.LFB133:
	.loc 3 212 0
	@ args = 0, pretend = 0, frame = 0
	@ frame_needed = 0, uses_anonymous_args = 0
	@ link register save eliminated.
	.loc 3 213 0
	ldr	r3, .L32
	ldr	r3, [r3]
	uxtb	r3, r3
	cmp	r3, #6
	bne	.L28
	.loc 3 213 0 is_stmt 0 discriminator 1
	ldr	r3, .L32+4
	ldr	r3, [r3]
	and	r3, r3, #15
	cmp	r3, #0
	bne	.L28
	.loc 3 214 0 is_stmt 1
	ldr	r3, .L32+8
	ldr	r3, [r3]
	and	r3, r3, #240
	cmp	r3, #48
	bne	.L29
	.loc 3 215 0
	movs	r3, #1
	b	.L30
.L29:
	.loc 3 217 0
	ldr	r3, .L32+8
	ldr	r3, [r3]
	and	r3, r3, #240
	cmp	r3, #64
	bne	.L31
	.loc 3 218 0
	movs	r3, #1
	b	.L30
.L31:
	.loc 3 220 0
	ldr	r3, .L32+8
	ldr	r3, [r3]
	and	r3, r3, #240
	cmp	r3, #80
	bne	.L28
	.loc 3 221 0
	movs	r3, #1
	b	.L30
.L28:
	.loc 3 225 0
	movs	r3, #0
.L30:
	.loc 3 226 0
	mov	r0, r3
	bx	lr
.L33:
	.align	2
.L32:
	.word	-268431392
	.word	-268431388
	.word	-268431384
.LFE133:
	.size	errata_12, .-errata_12
	.section	.text.errata_16,"ax",%progbits
	.align	1
	.syntax unified
	.thumb
	.thumb_func
	.fpu fpv4-sp-d16
	.type	errata_16, %function
errata_16:
.LFB134:
	.loc 3 229 0
	@ args = 0, pretend = 0, frame = 0
	@ frame_needed = 0, uses_anonymous_args = 0
	@ link register save eliminated.
	.loc 3 230 0
	ldr	r3, .L37
	ldr	r3, [r3]
	uxtb	r3, r3
	cmp	r3, #6
	bne	.L35
	.loc 3 230 0 is_stmt 0 discriminator 1
	ldr	r3, .L37+4
	ldr	r3, [r3]
	and	r3, r3, #15
	cmp	r3, #0
	bne	.L35
	.loc 3 231 0 is_stmt 1
	ldr	r3, .L37+8
	ldr	r3, [r3]
	and	r3, r3, #240
	cmp	r3, #48
	bne	.L35
	.loc 3 232 0
	movs	r3, #1
	b	.L36
.L35:
	.loc 3 236 0
	movs	r3, #0
.L36:
	.loc 3 237 0
	mov	r0, r3
	bx	lr
.L38:
	.align	2
.L37:
	.word	-268431392
	.word	-268431388
	.word	-268431384
.LFE134:
	.size	errata_16, .-errata_16
	.section	.text.errata_31,"ax",%progbits
	.align	1
	.syntax unified
	.thumb
	.thumb_func
	.fpu fpv4-sp-d16
	.type	errata_31, %function
errata_31:
.LFB135:
	.loc 3 240 0
	@ args = 0, pretend = 0, frame = 0
	@ frame_needed = 0, uses_anonymous_args = 0
	@ link register save eliminated.
	.loc 3 241 0
	ldr	r3, .L44
	ldr	r3, [r3]
	uxtb	r3, r3
	cmp	r3, #6
	bne	.L40
	.loc 3 241 0 is_stmt 0 discriminator 1
	ldr	r3, .L44+4
	ldr	r3, [r3]
	and	r3, r3, #15
	cmp	r3, #0
	bne	.L40
	.loc 3 242 0 is_stmt 1
	ldr	r3, .L44+8
	ldr	r3, [r3]
	and	r3, r3, #240
	cmp	r3, #48
	bne	.L41
	.loc 3 243 0
	movs	r3, #1
	b	.L42
.L41:
	.loc 3 245 0
	ldr	r3, .L44+8
	ldr	r3, [r3]
	and	r3, r3, #240
	cmp	r3, #64
	bne	.L43
	.loc 3 246 0
	movs	r3, #1
	b	.L42
.L43:
	.loc 3 248 0
	ldr	r3, .L44+8
	ldr	r3, [r3]
	and	r3, r3, #240
	cmp	r3, #80
	bne	.L40
	.loc 3 249 0
	movs	r3, #1
	b	.L42
.L40:
	.loc 3 253 0
	movs	r3, #0
.L42:
	.loc 3 254 0
	mov	r0, r3
	bx	lr
.L45:
	.align	2
.L44:
	.word	-268431392
	.word	-268431388
	.word	-268431384
.LFE135:
	.size	errata_31, .-errata_31
	.section	.text.errata_32,"ax",%progbits
	.align	1
	.syntax unified
	.thumb
	.thumb_func
	.fpu fpv4-sp-d16
	.type	errata_32, %function
errata_32:
.LFB136:
	.loc 3 257 0
	@ args = 0, pretend = 0, frame = 0
	@ frame_needed = 0, uses_anonymous_args = 0
	@ link register save eliminated.
	.loc 3 258 0
	ldr	r3, .L49
	ldr	r3, [r3]
	uxtb	r3, r3
	cmp	r3, #6
	bne	.L47
	.loc 3 258 0 is_stmt 0 discriminator 1
	ldr	r3, .L49+4
	ldr	r3, [r3]
	and	r3, r3, #15
	cmp	r3, #0
	bne	.L47
	.loc 3 259 0 is_stmt 1
	ldr	r3, .L49+8
	ldr	r3, [r3]
	and	r3, r3, #240
	cmp	r3, #48
	bne	.L47
	.loc 3 260 0
	movs	r3, #1
	b	.L48
.L47:
	.loc 3 264 0
	movs	r3, #0
.L48:
	.loc 3 265 0
	mov	r0, r3
	bx	lr
.L50:
	.align	2
.L49:
	.word	-268431392
	.word	-268431388
	.word	-268431384
.LFE136:
	.size	errata_32, .-errata_32
	.section	.text.errata_36,"ax",%progbits
	.align	1
	.syntax unified
	.thumb
	.thumb_func
	.fpu fpv4-sp-d16
	.type	errata_36, %function
errata_36:
.LFB137:
	.loc 3 268 0
	@ args = 0, pretend = 0, frame = 0
	@ frame_needed = 0, uses_anonymous_args = 0
	@ link register save eliminated.
	.loc 3 269 0
	ldr	r3, .L56
	ldr	r3, [r3]
	uxtb	r3, r3
	cmp	r3, #6
	bne	.L52
	.loc 3 269 0 is_stmt 0 discriminator 1
	ldr	r3, .L56+4
	ldr	r3, [r3]
	and	r3, r3, #15
	cmp	r3, #0
	bne	.L52
	.loc 3 270 0 is_stmt 1
	ldr	r3, .L56+8
	ldr	r3, [r3]
	and	r3, r3, #240
	cmp	r3, #48
	bne	.L53
	.loc 3 271 0
	movs	r3, #1
	b	.L54
.L53:
	.loc 3 273 0
	ldr	r3, .L56+8
	ldr	r3, [r3]
	and	r3, r3, #240
	cmp	r3, #64
	bne	.L55
	.loc 3 274 0
	movs	r3, #1
	b	.L54
.L55:
	.loc 3 276 0
	ldr	r3, .L56+8
	ldr	r3, [r3]
	and	r3, r3, #240
	cmp	r3, #80
	bne	.L52
	.loc 3 277 0
	movs	r3, #1
	b	.L54
.L52:
	.loc 3 281 0
	movs	r3, #0
.L54:
	.loc 3 282 0
	mov	r0, r3
	bx	lr
.L57:
	.align	2
.L56:
	.word	-268431392
	.word	-268431388
	.word	-268431384
.LFE137:
	.size	errata_36, .-errata_36
	.section	.text.errata_37,"ax",%progbits
	.align	1
	.syntax unified
	.thumb
	.thumb_func
	.fpu fpv4-sp-d16
	.type	errata_37, %function
errata_37:
.LFB138:
	.loc 3 285 0
	@ args = 0, pretend = 0, frame = 0
	@ frame_needed = 0, uses_anonymous_args = 0
	@ link register save eliminated.
	.loc 3 286 0
	ldr	r3, .L61
	ldr	r3, [r3]
	uxtb	r3, r3
	cmp	r3, #6
	bne	.L59
	.loc 3 286 0 is_stmt 0 discriminator 1
	ldr	r3, .L61+4
	ldr	r3, [r3]
	and	r3, r3, #15
	cmp	r3, #0
	bne	.L59
	.loc 3 287 0 is_stmt 1
	ldr	r3, .L61+8
	ldr	r3, [r3]
	and	r3, r3, #240
	cmp	r3, #48
	bne	.L59
	.loc 3 288 0
	movs	r3, #1
	b	.L60
.L59:
	.loc 3 292 0
	movs	r3, #0
.L60:
	.loc 3 293 0
	mov	r0, r3
	bx	lr
.L62:
	.align	2
.L61:
	.word	-268431392
	.word	-268431388
	.word	-268431384
.LFE138:
	.size	errata_37, .-errata_37
	.section	.text.errata_57,"ax",%progbits
	.align	1
	.syntax unified
	.thumb
	.thumb_func
	.fpu fpv4-sp-d16
	.type	errata_57, %function
errata_57:
.LFB139:
	.loc 3 296 0
	@ args = 0, pretend = 0, frame = 0
	@ frame_needed = 0, uses_anonymous_args = 0
	@ link register save eliminated.
	.loc 3 297 0
	ldr	r3, .L66
	ldr	r3, [r3]
	uxtb	r3, r3
	cmp	r3, #6
	bne	.L64
	.loc 3 297 0 is_stmt 0 discriminator 1
	ldr	r3, .L66+4
	ldr	r3, [r3]
	and	r3, r3, #15
	cmp	r3, #0
	bne	.L64
	.loc 3 298 0 is_stmt 1
	ldr	r3, .L66+8
	ldr	r3, [r3]
	and	r3, r3, #240
	cmp	r3, #48
	bne	.L64
	.loc 3 299 0
	movs	r3, #1
	b	.L65
.L64:
	.loc 3 303 0
	movs	r3, #0
.L65:
	.loc 3 304 0
	mov	r0, r3
	bx	lr
.L67:
	.align	2
.L66:
	.word	-268431392
	.word	-268431388
	.word	-268431384
.LFE139:
	.size	errata_57, .-errata_57
	.section	.text.errata_66,"ax",%progbits
	.align	1
	.syntax unified
	.thumb
	.thumb_func
	.fpu fpv4-sp-d16
	.type	errata_66, %function
errata_66:
.LFB140:
	.loc 3 307 0
	@ args = 0, pretend = 0, frame = 0
	@ frame_needed = 0, uses_anonymous_args = 0
	@ link register save eliminated.
	.loc 3 308 0
	ldr	r3, .L71
	ldr	r3, [r3]
	uxtb	r3, r3
	cmp	r3, #6
	bne	.L69
	.loc 3 308 0 is_stmt 0 discriminator 1
	ldr	r3, .L71+4
	ldr	r3, [r3]
	and	r3, r3, #15
	cmp	r3, #0
	bne	.L69
	.loc 3 309 0 is_stmt 1
	ldr	r3, .L71+8
	ldr	r3, [r3]
	and	r3, r3, #240
	cmp	r3, #80
	bne	.L69
	.loc 3 310 0
	movs	r3, #1
	b	.L70
.L69:
	.loc 3 314 0
	movs	r3, #0
.L70:
	.loc 3 315 0
	mov	r0, r3
	bx	lr
.L72:
	.align	2
.L71:
	.word	-268431392
	.word	-268431388
	.word	-268431384
.LFE140:
	.size	errata_66, .-errata_66
	.section	.text.errata_108,"ax",%progbits
	.align	1
	.syntax unified
	.thumb
	.thumb_func
	.fpu fpv4-sp-d16
	.type	errata_108, %function
errata_108:
.LFB141:
	.loc 3 319 0
	@ args = 0, pretend = 0, frame = 0
	@ frame_needed = 0, uses_anonymous_args = 0
	@ link register save eliminated.
	.loc 3 320 0
	ldr	r3, .L78
	ldr	r3, [r3]
	uxtb	r3, r3
	cmp	r3, #6
	bne	.L74
	.loc 3 320 0 is_stmt 0 discriminator 1
	ldr	r3, .L78+4
	ldr	r3, [r3]
	and	r3, r3, #15
	cmp	r3, #0
	bne	.L74
	.loc 3 321 0 is_stmt 1
	ldr	r3, .L78+8
	ldr	r3, [r3]
	and	r3, r3, #240
	cmp	r3, #48
	bne	.L75
	.loc 3 322 0
	movs	r3, #1
	b	.L76
.L75:
	.loc 3 324 0
	ldr	r3, .L78+8
	ldr	r3, [r3]
	and	r3, r3, #240
	cmp	r3, #64
	bne	.L77
	.loc 3 325 0
	movs	r3, #1
	b	.L76
.L77:
	.loc 3 327 0
	ldr	r3, .L78+8
	ldr	r3, [r3]
	and	r3, r3, #240
	cmp	r3, #80
	bne	.L74
	.loc 3 328 0
	movs	r3, #1
	b	.L76
.L74:
	.loc 3 332 0
	movs	r3, #0
.L76:
	.loc 3 333 0
	mov	r0, r3
	bx	lr
.L79:
	.align	2
.L78:
	.word	-268431392
	.word	-268431388
	.word	-268431384
.LFE141:
	.size	errata_108, .-errata_108
	.section	.text.errata_136,"ax",%progbits
	.align	1
	.syntax unified
	.thumb
	.thumb_func
	.fpu fpv4-sp-d16
	.type	errata_136, %function
errata_136:
.LFB142:
	.loc 3 337 0
	@ args = 0, pretend = 0, frame = 0
	@ frame_needed = 0, uses_anonymous_args = 0
	@ link register save eliminated.
	.loc 3 338 0
	ldr	r3, .L85
	ldr	r3, [r3]
	uxtb	r3, r3
	cmp	r3, #6
	bne	.L81
	.loc 3 338 0 is_stmt 0 discriminator 1
	ldr	r3, .L85+4
	ldr	r3, [r3]
	and	r3, r3, #15
	cmp	r3, #0
	bne	.L81
	.loc 3 339 0 is_stmt 1
	ldr	r3, .L85+8
	ldr	r3, [r3]
	and	r3, r3, #240
	cmp	r3, #48
	bne	.L82
	.loc 3 340 0
	movs	r3, #1
	b	.L83
.L82:
	.loc 3 342 0
	ldr	r3, .L85+8
	ldr	r3, [r3]
	and	r3, r3, #240
	cmp	r3, #64
	bne	.L84
	.loc 3 343 0
	movs	r3, #1
	b	.L83
.L84:
	.loc 3 345 0
	ldr	r3, .L85+8
	ldr	r3, [r3]
	and	r3, r3, #240
	cmp	r3, #80
	bne	.L81
	.loc 3 346 0
	movs	r3, #1
	b	.L83
.L81:
	.loc 3 350 0
	movs	r3, #0
.L83:
	.loc 3 351 0
	mov	r0, r3
	bx	lr
.L86:
	.align	2
.L85:
	.word	-268431392
	.word	-268431388
	.word	-268431384
.LFE142:
	.size	errata_136, .-errata_136
	.section	.debug_frame,"",%progbits
.Lframe0:
	.4byte	.LECIE0-.LSCIE0
.LSCIE0:
	.4byte	0xffffffff
	.byte	0x3
	.ascii	"\000"
	.uleb128 0x1
	.sleb128 -4
	.uleb128 0xe
	.byte	0xc
	.uleb128 0xd
	.uleb128 0
	.align	2
.LECIE0:
.LSFDE0:
	.4byte	.LEFDE0-.LASFDE0
.LASFDE0:
	.4byte	.Lframe0
	.4byte	.LFB117
	.4byte	.LFE117-.LFB117
	.align	2
.LEFDE0:
.LSFDE2:
	.4byte	.LEFDE2-.LASFDE2
.LASFDE2:
	.4byte	.Lframe0
	.4byte	.LFB131
	.4byte	.LFE131-.LFB131
	.align	2
.LEFDE2:
.LSFDE4:
	.4byte	.LEFDE4-.LASFDE4
.LASFDE4:
	.4byte	.Lframe0
	.4byte	.LFB132
	.4byte	.LFE132-.LFB132
	.byte	0x4
	.4byte	.LCFI0-.LFB132
	.byte	0xe
	.uleb128 0x8
	.byte	0x83
	.uleb128 0x2
	.byte	0x8e
	.uleb128 0x1
	.align	2
.LEFDE4:
.LSFDE6:
	.4byte	.LEFDE6-.LASFDE6
.LASFDE6:
	.4byte	.Lframe0
	.4byte	.LFB133
	.4byte	.LFE133-.LFB133
	.align	2
.LEFDE6:
.LSFDE8:
	.4byte	.LEFDE8-.LASFDE8
.LASFDE8:
	.4byte	.Lframe0
	.4byte	.LFB134
	.4byte	.LFE134-.LFB134
	.align	2
.LEFDE8:
.LSFDE10:
	.4byte	.LEFDE10-.LASFDE10
.LASFDE10:
	.4byte	.Lframe0
	.4byte	.LFB135
	.4byte	.LFE135-.LFB135
	.align	2
.LEFDE10:
.LSFDE12:
	.4byte	.LEFDE12-.LASFDE12
.LASFDE12:
	.4byte	.Lframe0
	.4byte	.LFB136
	.4byte	.LFE136-.LFB136
	.align	2
.LEFDE12:
.LSFDE14:
	.4byte	.LEFDE14-.LASFDE14
.LASFDE14:
	.4byte	.Lframe0
	.4byte	.LFB137
	.4byte	.LFE137-.LFB137
	.align	2
.LEFDE14:
.LSFDE16:
	.4byte	.LEFDE16-.LASFDE16
.LASFDE16:
	.4byte	.Lframe0
	.4byte	.LFB138
	.4byte	.LFE138-.LFB138
	.align	2
.LEFDE16:
.LSFDE18:
	.4byte	.LEFDE18-.LASFDE18
.LASFDE18:
	.4byte	.Lframe0
	.4byte	.LFB139
	.4byte	.LFE139-.LFB139
	.align	2
.LEFDE18:
.LSFDE20:
	.4byte	.LEFDE20-.LASFDE20
.LASFDE20:
	.4byte	.Lframe0
	.4byte	.LFB140
	.4byte	.LFE140-.LFB140
	.align	2
.LEFDE20:
.LSFDE22:
	.4byte	.LEFDE22-.LASFDE22
.LASFDE22:
	.4byte	.Lframe0
	.4byte	.LFB141
	.4byte	.LFE141-.LFB141
	.align	2
.LEFDE22:
.LSFDE24:
	.4byte	.LEFDE24-.LASFDE24
.LASFDE24:
	.4byte	.Lframe0
	.4byte	.LFB142
	.4byte	.LFE142-.LFB142
	.align	2
.LEFDE24:
	.text
.Letext0:
	.file 4 "C:/Program Files/SEGGER/SEGGER Embedded Studio for ARM 4.12/include/stdint.h"
	.file 5 "C:/Users/Admin/AppData/Local/SEGGER/SEGGER Embedded Studio/v3/packages/nRF/CMSIS/Device/Include/system_nrf52.h"
	.file 6 "C:/Users/Admin/AppData/Local/SEGGER/SEGGER Embedded Studio/v3/packages/nRF/CMSIS/Device/Include/nrf52.h"